; Function Attrs: nounwind uwtable
define dso_local range(i64 1, 4294967296) i64 @enum_last(ptr noundef readonly captures(none) %0) local_unnamed_addr #0 {
  %2 = load ptr, ptr %0, align 8
  %3 = tail call i32 @get_fn_expr_argtype(ptr noundef %2, i32 noundef 0) #8
  %4 = icmp eq i32 %3, 0
  br i1 %4, label %5, label %9

5:                                                ; preds = %1
  %6 = tail call zeroext i1 @errstart_cold(i32 noundef 21, ptr noundef null) #9
  tail call void @llvm.assume(i1 %6)
  %7 = tail call i32 @errcode(i32 noundef 1088) #8
  %8 = tail call i32 (ptr, ...) @errmsg(ptr noundef nonnull @.str.3) #8
  tail call void @errfinish(ptr noundef nonnull @.str.1, i32 noundef 480, ptr noundef nonnull @__func__.enum_last) #8
  unreachable

9:                                                ; preds = %1
  %10 = tail call fastcc i32 @enum_endpoint(i32 noundef %3, i32 noundef -1)
  %.not = icmp eq i32 %10, 0
  br i1 %.not, label %11, label %16

11:                                               ; preds = %9
  %12 = tail call zeroext i1 @errstart_cold(i32 noundef 21, ptr noundef null) #9
  tail call void @llvm.assume(i1 %12)
  %13 = tail call i32 @errcode(i32 noundef 325) #8
  %14 = tail call ptr @format_type_be(i32 noundef %3) #8
  %15 = tail call i32 (ptr, ...) @errmsg(ptr noundef nonnull @.str.4, ptr noundef %14) #8
  tail call void @errfinish(ptr noundef nonnull @.str.1, i32 noundef 489, ptr noundef nonnull @__func__.enum_last) #8
  unreachable

16:                                               ; preds = %9
  %17 = zext i32 %10 to i64
  ret i64 %17
}